target datalayout = "e-m:e-p270:32:32-p271:32:32-p272:64:64-i64:64-i128:128-f80:128-n8:16:32:64-S128"
target triple = "x86_64-pc-linux-gnu"

%class.CodeHeap = type { %class.VirtualSpace, %class.VirtualSpace, i64, i64, i64, i32, i64, ptr, ptr, i64, i32, i64, ptr, i32, i32, i32, i32, i32, i32 }
%class.VirtualSpace = type { ptr, ptr, ptr, ptr, i8, i8, ptr, ptr, ptr, ptr, ptr, ptr, i64, i64, i64 }

; Function Attrs: mustprogress nounwind uwtable
define linkonce_odr hidden noundef ptr @_ZNK12VirtualSpace4highEv(ptr noundef nonnull align 8 dereferenceable(112) %0) #1 comdat align 2 {
  %2 = alloca ptr, align 8
  store ptr %0, ptr %2, align 8
  %3 = load ptr, ptr %2, align 8
  %4 = getelementptr inbounds %class.VirtualSpace, ptr %3, i32 0, i32 3
  %5 = load ptr, ptr %4, align 8
  ret ptr %5
}

; Function Attrs: mustprogress nounwind uwtable
define linkonce_odr hidden noundef i64 @_ZNK8CodeHeap16segments_to_sizeEm(ptr noundef nonnull align 8 dereferenceable(336) %0, i64 noundef %1) #1 comdat align 2 {
  %3 = alloca ptr, align 8
  %4 = alloca i64, align 8
  store ptr %0, ptr %3, align 8
  store i64 %1, ptr %4, align 8
  %5 = load ptr, ptr %3, align 8
  %6 = load i64, ptr %4, align 8
  %7 = getelementptr inbounds %class.CodeHeap, ptr %5, i32 0, i32 5
  %8 = load i32, ptr %7, align 8
  %9 = zext i32 %8 to i64
  %10 = shl i64 %6, %9
  ret i64 %10
}

; Function Attrs: mustprogress nounwind uwtable
define linkonce_odr hidden noundef ptr @_ZNK8CodeHeap4highEv(ptr noundef nonnull align 8 dereferenceable(336) %0) #1 comdat align 2 {
  %2 = alloca ptr, align 8
  store ptr %0, ptr %2, align 8
  %3 = load ptr, ptr %2, align 8
  %4 = getelementptr inbounds %class.CodeHeap, ptr %3, i32 0, i32 0
  %5 = call noundef ptr @_ZNK12VirtualSpace4highEv(ptr noundef nonnull align 8 dereferenceable(112) %4)
  ret ptr %5
}

; Function Attrs: mustprogress nounwind uwtable
define linkonce_odr hidden noundef ptr @_ZNK8CodeHeap3lowEv(ptr noundef nonnull align 8 dereferenceable(336) %0) #1 comdat align 2 {
  %2 = alloca ptr, align 8
  store ptr %0, ptr %2, align 8
  %3 = load ptr, ptr %2, align 8
  %4 = getelementptr inbounds %class.CodeHeap, ptr %3, i32 0, i32 0
  %5 = call noundef ptr @_ZNK12VirtualSpace3lowEv(ptr noundef nonnull align 8 dereferenceable(112) %4)
  ret ptr %5
}

; Function Attrs: mustprogress nounwind uwtable
define linkonce_odr hidden noundef ptr @_ZNK8CodeHeap11address_forEm(ptr noundef nonnull align 8 dereferenceable(336) %0, i64 noundef %1) #1 comdat align 2 {
  %3 = alloca ptr, align 8
  %4 = alloca i64, align 8
  store ptr %0, ptr %3, align 8
  store i64 %1, ptr %4, align 8
  %5 = load ptr, ptr %3, align 8
  %6 = getelementptr inbounds %class.CodeHeap, ptr %5, i32 0, i32 0
  %7 = call noundef ptr @_ZNK12VirtualSpace3lowEv(ptr noundef nonnull align 8 dereferenceable(112) %6)
  %8 = load i64, ptr %4, align 8
  %9 = call noundef i64 @_ZNK8CodeHeap16segments_to_sizeEm(ptr noundef nonnull align 8 dereferenceable(336) %5, i64 noundef %8)
  %10 = getelementptr inbounds i8, ptr %7, i64 %9
  ret ptr %10
}

; Function Attrs: mustprogress nounwind uwtable
define linkonce_odr hidden noundef zeroext i1 @_ZNK8CodeHeap17is_segment_unusedEi(ptr noundef nonnull align 8 dereferenceable(336) %0, i32 noundef %1) #1 comdat align 2 {
  %3 = alloca ptr, align 8
  %4 = alloca i32, align 4
  store ptr %0, ptr %3, align 8
  store i32 %1, ptr %4, align 4
  %5 = load i32, ptr %4, align 4
  %6 = icmp eq i32 %5, 255
  ret i1 %6
}

; Function Attrs: mustprogress nounwind uwtable
define linkonce_odr hidden noundef i64 @_ZNK8CodeHeap11segment_forEPv(ptr noundef nonnull align 8 dereferenceable(336) %0, ptr noundef %1) #1 comdat align 2 {
  %3 = alloca ptr, align 8
  %4 = alloca ptr, align 8
  store ptr %0, ptr %3, align 8
  store ptr %1, ptr %4, align 8
  %5 = load ptr, ptr %3, align 8
  %6 = load ptr, ptr %4, align 8
  %7 = getelementptr inbounds %class.CodeHeap, ptr %5, i32 0, i32 0
  %8 = call noundef ptr @_ZNK12VirtualSpace3lowEv(ptr noundef nonnull align 8 dereferenceable(112) %7)
  %9 = ptrtoint ptr %6 to i64
  %10 = ptrtoint ptr %8 to i64
  %11 = sub i64 %9, %10
  %12 = getelementptr inbounds %class.CodeHeap, ptr %5, i32 0, i32 5
  %13 = load i32, ptr %12, align 8
  %14 = zext i32 %13 to i64
  %15 = ashr i64 %11, %14
  ret i64 %15
}

; Function Attrs: mustprogress nounwind uwtable
define linkonce_odr hidden noundef ptr @_ZNK12VirtualSpace3lowEv(ptr noundef nonnull align 8 dereferenceable(112) %0) #1 comdat align 2 {
  %2 = alloca ptr, align 8
  store ptr %0, ptr %2, align 8
  %3 = load ptr, ptr %2, align 8
  %4 = getelementptr inbounds %class.VirtualSpace, ptr %3, i32 0, i32 2
  %5 = load ptr, ptr %4, align 8
  ret ptr %5
}

; Function Attrs: mustprogress nounwind uwtable
define linkonce_odr hidden noundef zeroext i1 @_ZNK8CodeHeap8containsEPKv(ptr noundef nonnull align 8 dereferenceable(336) %0, ptr noundef %1) #1 comdat align 2 {
  %3 = alloca ptr, align 8
  %4 = alloca ptr, align 8
  store ptr %0, ptr %3, align 8
  store ptr %1, ptr %4, align 8
  %5 = load ptr, ptr %3, align 8
  %6 = call noundef ptr @_ZNK8CodeHeap3lowEv(ptr noundef nonnull align 8 dereferenceable(336) %5)
  %7 = load ptr, ptr %4, align 8
  %8 = icmp ule ptr %6, %7
  br i1 %8, label %9, label %13

9:                                                ; preds = %2
  %10 = load ptr, ptr %4, align 8
  %11 = call noundef ptr @_ZNK8CodeHeap4highEv(ptr noundef nonnull align 8 dereferenceable(336) %5)
  %12 = icmp ult ptr %10, %11
  br label %13

13:                                               ; preds = %9, %2
  %14 = phi i1 [ false, %2 ], [ %12, %9 ]
  ret i1 %14
}

; Function Attrs: mustprogress nounwind uwtable
define hidden noundef ptr @_ZNK8CodeHeap14find_block_forEPv(ptr noundef nonnull align 8 dereferenceable(336) %0, ptr noundef %1) #1 align 2 {
  %3 = alloca ptr, align 8
  %4 = alloca ptr, align 8
  %5 = alloca ptr, align 8
  %6 = alloca ptr, align 8
  %7 = alloca i64, align 8
  store ptr %0, ptr %4, align 8
  store ptr %1, ptr %5, align 8
  %8 = load ptr, ptr %4, align 8
  %9 = load ptr, ptr %5, align 8
  %10 = call noundef zeroext i1 @_ZNK8CodeHeap8containsEPKv(ptr noundef nonnull align 8 dereferenceable(336) %8, ptr noundef %9)
  br i1 %10, label %12, label %11

11:                                               ; preds = %2
  store ptr null, ptr %3, align 8
  br label %44

12:                                               ; preds = %2
  %13 = getelementptr inbounds %class.CodeHeap, ptr %8, i32 0, i32 1
  %14 = call noundef ptr @_ZNK12VirtualSpace3lowEv(ptr noundef nonnull align 8 dereferenceable(112) %13)
  store ptr %14, ptr %6, align 8
  %15 = load ptr, ptr %5, align 8
  %16 = call noundef i64 @_ZNK8CodeHeap11segment_forEPv(ptr noundef nonnull align 8 dereferenceable(336) %8, ptr noundef %15)
  store i64 %16, ptr %7, align 8
  %17 = load ptr, ptr %6, align 8
  %18 = load i64, ptr %7, align 8
  %19 = getelementptr inbounds i8, ptr %17, i64 %18
  %20 = load i8, ptr %19, align 1
  %21 = zext i8 %20 to i32
  %22 = call noundef zeroext i1 @_ZNK8CodeHeap17is_segment_unusedEi(ptr noundef nonnull align 8 dereferenceable(336) %8, i32 noundef %21)
  br i1 %22, label %23, label %24

23:                                               ; preds = %12
  store ptr null, ptr %3, align 8
  br label %44

24:                                               ; preds = %12
  br label %25

25:                                               ; preds = %32, %24
  %26 = load ptr, ptr %6, align 8
  %27 = load i64, ptr %7, align 8
  %28 = getelementptr inbounds i8, ptr %26, i64 %27
  %29 = load i8, ptr %28, align 1
  %30 = zext i8 %29 to i32
  %31 = icmp sgt i32 %30, 0
  br i1 %31, label %32, label %41

32:                                               ; preds = %25
  %33 = load ptr, ptr %6, align 8
  %34 = load i64, ptr %7, align 8
  %35 = getelementptr inbounds i8, ptr %33, i64 %34
  %36 = load i8, ptr %35, align 1
  %37 = zext i8 %36 to i32
  %38 = sext i32 %37 to i64
  %39 = load i64, ptr %7, align 8
  %40 = sub i64 %39, %38
  store i64 %40, ptr %7, align 8
  br label %25, !llvm.loop !12

41:                                               ; preds = %25
  %42 = load i64, ptr %7, align 8
  %43 = call noundef ptr @_ZNK8CodeHeap11address_forEm(ptr noundef nonnull align 8 dereferenceable(336) %8, i64 noundef %42)
  store ptr %43, ptr %3, align 8
  br label %44

44:                                               ; preds = %41, %23, %11
  %45 = load ptr, ptr %3, align 8
  ret ptr %45
}