; Function Attrs: mustprogress nofree norecurse nosync nounwind willreturn memory(read, inaccessiblemem: none) uwtable
define hidden noundef ptr @_ZNK8CodeHeap14find_block_forEPv(ptr nocapture noundef nonnull readonly align 8 dereferenceable(336) %0, ptr noundef %1) local_unnamed_addr #10 align 2 {
  %3 = getelementptr inbounds i8, ptr %0, i64 16
  %4 = load ptr, ptr %3, align 8
  %.not.i = icmp ule ptr %4, %1
  %5 = getelementptr inbounds i8, ptr %0, i64 24
  %6 = load ptr, ptr %5, align 8
  %7 = icmp ugt ptr %6, %1
  %8 = select i1 %.not.i, i1 %7, i1 false
  br i1 %8, label %9, label %29

9:                                                ; preds = %2
  %10 = getelementptr inbounds i8, ptr %0, i64 128
  %11 = load ptr, ptr %10, align 8
  %12 = ptrtoint ptr %1 to i64
  %13 = ptrtoint ptr %4 to i64
  %14 = sub i64 %12, %13
  %15 = getelementptr inbounds i8, ptr %0, i64 248
  %16 = load i32, ptr %15, align 8
  %17 = zext nneg i32 %16 to i64
  %18 = ashr i64 %14, %17
  %19 = getelementptr inbounds i8, ptr %11, i64 %18
  %20 = load i8, ptr %19, align 1
  %21 = icmp eq i8 %20, -1
  br i1 %21, label %29, label %.preheader

.preheader:                                       ; preds = %9, %.preheader
  %.0 = phi i64 [ %25, %.preheader ], [ %18, %9 ]
  %22 = getelementptr inbounds i8, ptr %11, i64 %.0
  %23 = load i8, ptr %22, align 1
  %.not = icmp eq i8 %23, 0
  %24 = zext i8 %23 to i64
  %25 = sub i64 %.0, %24
  br i1 %.not, label %26, label %.preheader, !llvm.loop !12

26:                                               ; preds = %.preheader
  %27 = shl i64 %.0, %17
  %28 = getelementptr inbounds i8, ptr %4, i64 %27
  br label %29

29:                                               ; preds = %9, %2, %26
  %.011 = phi ptr [ %28, %26 ], [ null, %2 ], [ null, %9 ]
  ret ptr %.011
}